target datalayout = "e-m:e-p270:32:32-p271:32:32-p272:64:64-i64:64-i128:128-f80:128-n8:16:32:64-S128"
target triple = "x86_64-pc-linux-gnu"

%"struct.rocksdb::BufferInfo" = type { %"class.rocksdb::AlignedBuffer", i64, i64, i8, ptr, %"class.std::function", i64 }
%"class.rocksdb::AlignedBuffer" = type { i64, %"class.std::unique_ptr", i64, i64, ptr }
%"class.std::unique_ptr" = type { %"struct.std::__uniq_ptr_data" }
%"struct.std::__uniq_ptr_data" = type { %"class.std::__uniq_ptr_impl" }
%"class.std::__uniq_ptr_impl" = type { %"class.std::tuple" }
%"class.std::tuple" = type { %"struct.std::_Tuple_impl" }
%"struct.std::_Tuple_impl" = type { %"struct.std::_Tuple_impl.0", %"struct.std::_Head_base.1" }
%"struct.std::_Tuple_impl.0" = type { %"struct.std::_Head_base" }
%"struct.std::_Head_base" = type { %"class.std::function" }
%"struct.std::_Head_base.1" = type { ptr }
%"class.std::function" = type { %"class.std::_Function_base", ptr }
%"class.std::_Function_base" = type { %"union.std::_Any_data", ptr }
%"union.std::_Any_data" = type { %"union.std::_Nocopy_types" }
%"union.std::_Nocopy_types" = type { { i64, i64 } }

; Function Attrs: mustprogress nounwind uwtable
define linkonce_odr noundef i64 @_ZNK7rocksdb13AlignedBuffer11CurrentSizeEv(ptr noundef nonnull align 8 dereferenceable(72) %0) #2 comdat align 2 {
  %2 = alloca ptr, align 8
  store ptr %0, ptr %2, align 8, !tbaa !33
  %3 = load ptr, ptr %2, align 8
  %4 = getelementptr inbounds nuw %"class.rocksdb::AlignedBuffer", ptr %3, i32 0, i32 3
  %5 = load i64, ptr %4, align 8, !tbaa !37
  ret i64 %5
}

; Function Attrs: mustprogress nounwind uwtable
define linkonce_odr void @_ZN7rocksdb13AlignedBuffer9RefitTailEmm(ptr noundef nonnull align 8 dereferenceable(72) %0, i64 noundef %1, i64 noundef %2) #2 comdat align 2 {
  %4 = alloca ptr, align 8
  %5 = alloca i64, align 8
  %6 = alloca i64, align 8
  store ptr %0, ptr %4, align 8, !tbaa !33
  store i64 %1, ptr %5, align 8, !tbaa !11
  store i64 %2, ptr %6, align 8, !tbaa !11
  %7 = load ptr, ptr %4, align 8
  %8 = load i64, ptr %6, align 8, !tbaa !11
  %9 = icmp ugt i64 %8, 0
  br i1 %9, label %10, label %18

10:                                               ; preds = %3
  %11 = getelementptr inbounds nuw %"class.rocksdb::AlignedBuffer", ptr %7, i32 0, i32 4
  %12 = load ptr, ptr %11, align 8, !tbaa !39
  %13 = getelementptr inbounds nuw %"class.rocksdb::AlignedBuffer", ptr %7, i32 0, i32 4
  %14 = load ptr, ptr %13, align 8, !tbaa !39
  %15 = load i64, ptr %5, align 8, !tbaa !11
  %16 = getelementptr inbounds nuw i8, ptr %14, i64 %15
  %17 = load i64, ptr %6, align 8, !tbaa !11
  call void @llvm.memmove.p0.p0.i64(ptr align 1 %12, ptr align 1 %16, i64 %17, i1 false)
  br label %18

18:                                               ; preds = %10, %3
  %19 = load i64, ptr %6, align 8, !tbaa !11
  %20 = getelementptr inbounds nuw %"class.rocksdb::AlignedBuffer", ptr %7, i32 0, i32 3
  store i64 %19, ptr %20, align 8, !tbaa !37
  ret void
}

; Function Attrs: mustprogress nounwind uwtable
define linkonce_odr void @_ZN7rocksdb13AlignedBuffer9AlignmentEm(ptr noundef nonnull align 8 dereferenceable(72) %0, i64 noundef %1) #2 comdat align 2 {
  %3 = alloca ptr, align 8
  %4 = alloca i64, align 8
  store ptr %0, ptr %3, align 8, !tbaa !33
  store i64 %1, ptr %4, align 8, !tbaa !11
  %5 = load ptr, ptr %3, align 8
  %6 = load i64, ptr %4, align 8, !tbaa !11
  %7 = getelementptr inbounds nuw %"class.rocksdb::AlignedBuffer", ptr %5, i32 0, i32 0
  store i64 %6, ptr %7, align 8, !tbaa !36
  ret void
}

; Function Attrs: mustprogress nounwind uwtable
define linkonce_odr noundef i64 @_ZNK7rocksdb13AlignedBuffer8CapacityEv(ptr noundef nonnull align 8 dereferenceable(72) %0) #2 comdat align 2 {
  %2 = alloca ptr, align 8
  store ptr %0, ptr %2, align 8, !tbaa !33
  %3 = load ptr, ptr %2, align 8
  %4 = getelementptr inbounds nuw %"class.rocksdb::AlignedBuffer", ptr %3, i32 0, i32 2
  %5 = load i64, ptr %4, align 8, !tbaa !35
  ret i64 %5
}

; Function Attrs: mustprogress nounwind uwtable
define linkonce_odr noundef i64 @_ZN7rocksdb10BufferInfo11CurrentSizeEv(ptr noundef nonnull align 8 dereferenceable(144) %0) #2 comdat align 2 {
  %2 = alloca ptr, align 8
  store ptr %0, ptr %2, align 8, !tbaa !9
  %3 = load ptr, ptr %2, align 8
  %4 = getelementptr inbounds nuw %"struct.rocksdb::BufferInfo", ptr %3, i32 0, i32 0
  %5 = call noundef i64 @_ZNK7rocksdb13AlignedBuffer11CurrentSizeEv(ptr noundef nonnull align 8 dereferenceable(72) %4)
  ret i64 %5
}

; Function Attrs: inlinehint mustprogress nounwind uwtable
define linkonce_odr noundef i64 @_ZN7rocksdb9RounddownEmm(i64 noundef %0, i64 noundef %1) #3 comdat {
  %3 = alloca i64, align 8
  %4 = alloca i64, align 8
  store i64 %0, ptr %3, align 8, !tbaa !11
  store i64 %1, ptr %4, align 8, !tbaa !11
  %5 = load i64, ptr %3, align 8, !tbaa !11
  %6 = load i64, ptr %4, align 8, !tbaa !11
  %7 = udiv i64 %5, %6
  %8 = load i64, ptr %4, align 8, !tbaa !11
  %9 = mul i64 %7, %8
  ret i64 %9
}

; Function Attrs: mustprogress nounwind uwtable
define linkonce_odr noundef zeroext i1 @_ZN7rocksdb10BufferInfo16IsOffsetInBufferEm(ptr noundef nonnull align 8 dereferenceable(144) %0, i64 noundef %1) #2 comdat align 2 {
  %3 = alloca ptr, align 8
  %4 = alloca i64, align 8
  store ptr %0, ptr %3, align 8, !tbaa !9
  store i64 %1, ptr %4, align 8, !tbaa !11
  %5 = load ptr, ptr %3, align 8
  %6 = load i64, ptr %4, align 8, !tbaa !11
  %7 = getelementptr inbounds nuw %"struct.rocksdb::BufferInfo", ptr %5, i32 0, i32 1
  %8 = load i64, ptr %7, align 8, !tbaa !17
  %9 = icmp uge i64 %6, %8
  br i1 %9, label %10, label %18

10:                                               ; preds = %2
  %11 = load i64, ptr %4, align 8, !tbaa !11
  %12 = getelementptr inbounds nuw %"struct.rocksdb::BufferInfo", ptr %5, i32 0, i32 1
  %13 = load i64, ptr %12, align 8, !tbaa !17
  %14 = getelementptr inbounds nuw %"struct.rocksdb::BufferInfo", ptr %5, i32 0, i32 0
  %15 = call noundef i64 @_ZNK7rocksdb13AlignedBuffer11CurrentSizeEv(ptr noundef nonnull align 8 dereferenceable(72) %14)
  %16 = add i64 %13, %15
  %17 = icmp ult i64 %11, %16
  br label %18

18:                                               ; preds = %10, %2
  %19 = phi i1 [ false, %2 ], [ %17, %10 ]
  ret i1 %19
}

; Function Attrs: mustprogress uwtable
define linkonce_odr noundef zeroext i1 @_ZN7rocksdb10BufferInfo21DoesBufferContainDataEv(ptr noundef nonnull align 8 dereferenceable(144) %0) #0 comdat align 2 {
  %2 = alloca ptr, align 8
  store ptr %0, ptr %2, align 8, !tbaa !9
  %3 = load ptr, ptr %2, align 8
  %4 = getelementptr inbounds nuw %"struct.rocksdb::BufferInfo", ptr %3, i32 0, i32 0
  %5 = call noundef i64 @_ZNK7rocksdb13AlignedBuffer11CurrentSizeEv(ptr noundef nonnull align 8 dereferenceable(72) %4)
  %6 = icmp ugt i64 %5, 0
  ret i1 %6
}

; Function Attrs: mustprogress uwtable
define void @_ZN7rocksdb18FilePrefetchBuffer20PrepareBufferForReadEPNS_10BufferInfoEmmmbbRm(ptr noundef nonnull align 8 dereferenceable(320) %0, ptr noundef %1, i64 noundef %2, i64 noundef %3, i64 noundef %4, i1 noundef zeroext %5, i1 noundef zeroext %6, ptr noundef nonnull align 8 dereferenceable(8) %7) #0 align 2 {
  %9 = alloca ptr, align 8
  %10 = alloca ptr, align 8
  %11 = alloca i64, align 8
  %12 = alloca i64, align 8
  %13 = alloca i64, align 8
  %14 = alloca i8, align 1
  %15 = alloca i8, align 1
  %16 = alloca ptr, align 8
  %17 = alloca i64, align 8
  %18 = alloca i8, align 1
  %19 = alloca i32, align 4
  store ptr %0, ptr %9, align 8, !tbaa !4
  store ptr %1, ptr %10, align 8, !tbaa !9
  store i64 %2, ptr %11, align 8, !tbaa !11
  store i64 %3, ptr %12, align 8, !tbaa !11
  store i64 %4, ptr %13, align 8, !tbaa !11
  %20 = zext i1 %5 to i8
  store i8 %20, ptr %14, align 1, !tbaa !13
  %21 = zext i1 %6 to i8
  store i8 %21, ptr %15, align 1, !tbaa !13
  store ptr %7, ptr %16, align 8, !tbaa !15
  call void @llvm.lifetime.start.p0(i64 8, ptr %17) #16
  store i64 0, ptr %17, align 8, !tbaa !11
  call void @llvm.lifetime.start.p0(i64 1, ptr %18) #16
  store i8 0, ptr %18, align 1, !tbaa !13
  %22 = load ptr, ptr %10, align 8, !tbaa !9
  %23 = call noundef zeroext i1 @_ZN7rocksdb10BufferInfo21DoesBufferContainDataEv(ptr noundef nonnull align 8 dereferenceable(144) %22)
  br i1 %23, label %24, label %47

24:                                               ; preds = %8
  %25 = load ptr, ptr %10, align 8, !tbaa !9
  %26 = load i64, ptr %12, align 8, !tbaa !11
  %27 = call noundef zeroext i1 @_ZN7rocksdb10BufferInfo16IsOffsetInBufferEm(ptr noundef nonnull align 8 dereferenceable(144) %25, i64 noundef %26)
  br i1 %27, label %28, label %47

28:                                               ; preds = %24
  %29 = load i64, ptr %12, align 8, !tbaa !11
  %30 = load ptr, ptr %10, align 8, !tbaa !9
  %31 = getelementptr inbounds nuw %"struct.rocksdb::BufferInfo", ptr %30, i32 0, i32 1
  %32 = load i64, ptr %31, align 8, !tbaa !17
  %33 = sub i64 %29, %32
  %34 = load i64, ptr %11, align 8, !tbaa !11
  %35 = call noundef i64 @_ZN7rocksdb9RounddownEmm(i64 noundef %33, i64 noundef %34)
  store i64 %35, ptr %17, align 8, !tbaa !11
  %36 = load ptr, ptr %10, align 8, !tbaa !9
  %37 = call noundef i64 @_ZN7rocksdb10BufferInfo11CurrentSizeEv(ptr noundef nonnull align 8 dereferenceable(144) %36)
  %38 = load i64, ptr %17, align 8, !tbaa !11
  %39 = sub i64 %37, %38
  %40 = load ptr, ptr %16, align 8, !tbaa !15
  store i64 %39, ptr %40, align 8, !tbaa !11
  %41 = load ptr, ptr %16, align 8, !tbaa !15
  %42 = load i64, ptr %41, align 8, !tbaa !11
  %43 = icmp ugt i64 %42, 0
  br i1 %43, label %44, label %45

44:                                               ; preds = %28
  store i8 1, ptr %18, align 1, !tbaa !13
  br label %46

45:                                               ; preds = %28
  store i64 0, ptr %17, align 8, !tbaa !11
  br label %46

46:                                               ; preds = %45, %44
  br label %47

47:                                               ; preds = %46, %24, %8
  %48 = load i8, ptr %15, align 1, !tbaa !13, !range !31, !noundef !32
  %49 = trunc i8 %48 to i1
  br i1 %49, label %50, label %51

50:                                               ; preds = %47
  store i32 1, ptr %19, align 4
  br label %101

51:                                               ; preds = %47
  %52 = load ptr, ptr %10, align 8, !tbaa !9
  %53 = getelementptr inbounds nuw %"struct.rocksdb::BufferInfo", ptr %52, i32 0, i32 0
  %54 = call noundef i64 @_ZNK7rocksdb13AlignedBuffer8CapacityEv(ptr noundef nonnull align 8 dereferenceable(72) %53)
  %55 = load i64, ptr %13, align 8, !tbaa !11
  %56 = icmp ult i64 %54, %55
  br i1 %56, label %57, label %69

57:                                               ; preds = %51
  %58 = load ptr, ptr %10, align 8, !tbaa !9
  %59 = getelementptr inbounds nuw %"struct.rocksdb::BufferInfo", ptr %58, i32 0, i32 0
  %60 = load i64, ptr %11, align 8, !tbaa !11
  call void @_ZN7rocksdb13AlignedBuffer9AlignmentEm(ptr noundef nonnull align 8 dereferenceable(72) %59, i64 noundef %60)
  %61 = load ptr, ptr %10, align 8, !tbaa !9
  %62 = getelementptr inbounds nuw %"struct.rocksdb::BufferInfo", ptr %61, i32 0, i32 0
  %63 = load i64, ptr %13, align 8, !tbaa !11
  %64 = load i8, ptr %18, align 1, !tbaa !13, !range !31, !noundef !32
  %65 = trunc i8 %64 to i1
  %66 = load i64, ptr %17, align 8, !tbaa !11
  %67 = load ptr, ptr %16, align 8, !tbaa !15
  %68 = load i64, ptr %67, align 8, !tbaa !11
  call void @_ZN7rocksdb13AlignedBuffer17AllocateNewBufferEmbmm(ptr noundef nonnull align 8 dereferenceable(72) %62, i64 noundef %63, i1 noundef zeroext %65, i64 noundef %66, i64 noundef %68)
  br label %100

69:                                               ; preds = %51
  %70 = load ptr, ptr %16, align 8, !tbaa !15
  %71 = load i64, ptr %70, align 8, !tbaa !11
  %72 = icmp ugt i64 %71, 0
  br i1 %72, label %73, label %82

73:                                               ; preds = %69
  %74 = load i8, ptr %14, align 1, !tbaa !13, !range !31, !noundef !32
  %75 = trunc i8 %74 to i1
  br i1 %75, label %76, label %82

76:                                               ; preds = %73
  %77 = load ptr, ptr %10, align 8, !tbaa !9
  %78 = getelementptr inbounds nuw %"struct.rocksdb::BufferInfo", ptr %77, i32 0, i32 0
  %79 = load i64, ptr %17, align 8, !tbaa !11
  %80 = load ptr, ptr %16, align 8, !tbaa !15
  %81 = load i64, ptr %80, align 8, !tbaa !11
  call void @_ZN7rocksdb13AlignedBuffer9RefitTailEmm(ptr noundef nonnull align 8 dereferenceable(72) %78, i64 noundef %79, i64 noundef %81)
  br label %99

82:                                               ; preds = %73, %69
  %83 = load ptr, ptr %16, align 8, !tbaa !15
  %84 = load i64, ptr %83, align 8, !tbaa !11
  %85 = icmp ugt i64 %84, 0
  br i1 %85, label %86, label %98

86:                                               ; preds = %82
  %87 = load ptr, ptr %10, align 8, !tbaa !9
  %88 = getelementptr inbounds nuw %"struct.rocksdb::BufferInfo", ptr %87, i32 0, i32 0
  %89 = load i64, ptr %11, align 8, !tbaa !11
  call void @_ZN7rocksdb13AlignedBuffer9AlignmentEm(ptr noundef nonnull align 8 dereferenceable(72) %88, i64 noundef %89)
  %90 = load ptr, ptr %10, align 8, !tbaa !9
  %91 = getelementptr inbounds nuw %"struct.rocksdb::BufferInfo", ptr %90, i32 0, i32 0
  %92 = load i64, ptr %13, align 8, !tbaa !11
  %93 = load i8, ptr %18, align 1, !tbaa !13, !range !31, !noundef !32
  %94 = trunc i8 %93 to i1
  %95 = load i64, ptr %17, align 8, !tbaa !11
  %96 = load ptr, ptr %16, align 8, !tbaa !15
  %97 = load i64, ptr %96, align 8, !tbaa !11
  call void @_ZN7rocksdb13AlignedBuffer17AllocateNewBufferEmbmm(ptr noundef nonnull align 8 dereferenceable(72) %91, i64 noundef %92, i1 noundef zeroext %94, i64 noundef %95, i64 noundef %97)
  br label %98

98:                                               ; preds = %86, %82
  br label %99

99:                                               ; preds = %98, %76
  br label %100

100:                                              ; preds = %99, %57
  store i32 0, ptr %19, align 4
  br label %101

101:                                              ; preds = %100, %50
  call void @llvm.lifetime.end.p0(i64 1, ptr %18) #16
  call void @llvm.lifetime.end.p0(i64 8, ptr %17) #16
  %102 = load i32, ptr %19, align 4
  switch i32 %102, label %104 [
    i32 0, label %103
    i32 1, label %103
  ]

103:                                              ; preds = %101, %101
  ret void

104:                                              ; preds = %101
  unreachable
}