; Function Attrs: mustprogress uwtable
define void @_ZN7rocksdb18FilePrefetchBuffer20PrepareBufferForReadEPNS_10BufferInfoEmmmbbRm(ptr noundef nonnull readnone align 8 captures(none) dereferenceable(320) %0, ptr noundef %1, i64 noundef %2, i64 noundef %3, i64 noundef %4, i1 noundef zeroext %5, i1 noundef zeroext %6, ptr noundef nonnull align 8 captures(none) dereferenceable(8) %7) local_unnamed_addr #0 align 2 {
  %9 = getelementptr inbounds nuw i8, ptr %1, i64 56
  %10 = load i64, ptr %9, align 8, !tbaa !4
  %.not40 = icmp eq i64 %10, 0
  br i1 %.not40, label %22, label %11

11:                                               ; preds = %8
  %12 = getelementptr inbounds nuw i8, ptr %1, i64 72
  %13 = load i64, ptr %12, align 8, !tbaa !21
  %.not.i = icmp uge i64 %3, %13
  %14 = add i64 %13, %10
  %15 = icmp ult i64 %3, %14
  %16 = and i1 %.not.i, %15
  br i1 %16, label %17, label %22

17:                                               ; preds = %11
  %18 = sub nuw i64 %3, %13
  %19 = urem i64 %18, %2
  %20 = sub nuw i64 %18, %19
  %21 = sub i64 %10, %20
  store i64 %21, ptr %7, align 8, !tbaa !24
  %.not = icmp ne i64 %10, %20
  %. = select i1 %.not, i64 %20, i64 0
  br label %22

22:                                               ; preds = %17, %11, %8
  %.032 = phi i64 [ 0, %11 ], [ 0, %8 ], [ %., %17 ]
  %.0 = phi i1 [ false, %11 ], [ false, %8 ], [ %.not, %17 ]
  br i1 %6, label %37, label %23

23:                                               ; preds = %22
  %24 = getelementptr inbounds nuw i8, ptr %1, i64 48
  %25 = load i64, ptr %24, align 8, !tbaa !25
  %26 = icmp ult i64 %25, %4
  br i1 %26, label %27, label %29

27:                                               ; preds = %23
  store i64 %2, ptr %1, align 8, !tbaa !26
  %28 = load i64, ptr %7, align 8, !tbaa !24
  tail call void @_ZN7rocksdb13AlignedBuffer17AllocateNewBufferEmbmm(ptr noundef nonnull align 8 dereferenceable(72) %1, i64 noundef %4, i1 noundef zeroext %.0, i64 noundef %.032, i64 noundef %28)
  br label %37

29:                                               ; preds = %23
  %30 = load i64, ptr %7, align 8, !tbaa !24
  %.not35 = icmp ne i64 %30, 0
  %brmerge.not = and i1 %5, %.not35
  br i1 %brmerge.not, label %_ZN7rocksdb13AlignedBuffer9RefitTailEmm.exit, label %34

_ZN7rocksdb13AlignedBuffer9RefitTailEmm.exit:     ; preds = %29
  %31 = getelementptr inbounds nuw i8, ptr %1, i64 64
  %32 = load ptr, ptr %31, align 8, !tbaa !27
  %33 = getelementptr inbounds nuw i8, ptr %32, i64 %.032
  tail call void @llvm.memmove.p0.p0.i64(ptr align 1 %32, ptr align 1 %33, i64 %30, i1 false)
  store i64 %30, ptr %9, align 8, !tbaa !4
  br label %37

34:                                               ; preds = %29
  br i1 %.not35, label %35, label %37

35:                                               ; preds = %34
  store i64 %2, ptr %1, align 8, !tbaa !26
  %36 = load i64, ptr %7, align 8, !tbaa !24
  tail call void @_ZN7rocksdb13AlignedBuffer17AllocateNewBufferEmbmm(ptr noundef nonnull align 8 dereferenceable(72) %1, i64 noundef %4, i1 noundef zeroext %.0, i64 noundef %.032, i64 noundef %36)
  br label %37

37:                                               ; preds = %27, %34, %35, %_ZN7rocksdb13AlignedBuffer9RefitTailEmm.exit, %22
  ret void
}